; Function Attrs: mustprogress nounwind uwtable
define void @_ZN7glslang18TBuiltInParseablesC2Ev(ptr noundef nonnull align 8 dereferenceable(608) initializes((0, 16)) %0) unnamed_addr #1 align 2 {
  store ptr getelementptr inbounds nuw inrange(-16, 64) (i8, ptr @_ZTVN7glslang18TBuiltInParseablesE, i64 16), ptr %0, align 8
  %2 = getelementptr inbounds nuw i8, ptr %0, i64 8
  %3 = getelementptr inbounds nuw i8, ptr %0, i64 32
  %4 = tail call noundef nonnull align 8 dereferenceable(96) ptr @_ZN7glslang22GetThreadPoolAllocatorEv() #16
  store ptr %4, ptr %2, align 8
  %5 = getelementptr inbounds nuw i8, ptr %0, i64 16
  store ptr %3, ptr %5, align 8
  %6 = getelementptr inbounds nuw i8, ptr %0, i64 24
  store i64 0, ptr %6, align 8
  store i8 0, ptr %3, align 8
  br label %7

7:                                                ; preds = %7, %1
  %.idx = phi i64 [ 48, %1 ], [ %.add, %7 ]
  %.ptr = getelementptr inbounds nuw i8, ptr %0, i64 %.idx
  %8 = getelementptr inbounds nuw i8, ptr %.ptr, i64 24
  %9 = tail call noundef nonnull align 8 dereferenceable(96) ptr @_ZN7glslang22GetThreadPoolAllocatorEv() #16
  store ptr %9, ptr %.ptr, align 8
  %10 = getelementptr inbounds nuw i8, ptr %.ptr, i64 8
  store ptr %8, ptr %10, align 8
  %11 = getelementptr inbounds nuw i8, ptr %.ptr, i64 16
  store i64 0, ptr %11, align 8
  store i8 0, ptr %8, align 8
  %.add = add nuw nsw i64 %.idx, 40
  %12 = icmp eq i64 %.add, 608
  br i1 %12, label %13, label %7

13:                                               ; preds = %7
  ret void
}